(lp0
(I1
(lp1
F0.056900000000000006
aF0.056900000000000006
aF0.056900000000000006
aF0.056900000000000006
aF0.056900000000000006
aF0.056900000000000006
aF0.056900000000000006
aF0.056900000000000006
aF0.056900000000000006
aF0.056900000000000006
aF0.056900000000000006
aF0.056900000000000006
aF0.056900000000000006
aF0.056900000000000006
aF0.056900000000000006
aF0.056900000000000006
aF0.056900000000000006
aF0.056900000000000006
aF0.056900000000000006
aF0.056900000000000006
aF0.056900000000000006
aF0.056900000000000006
aF0.056900000000000006
aF0.056900000000000006
aF0.056900000000000006
aF0.056900000000000006
aF0.056900000000000006
aF0.056900000000000006
aF0.056900000000000006
aF0.056900000000000006
aF0.056900000000000006
aF0.056900000000000006
aF0.056900000000000006
aF0.056900000000000006
aF0.056900000000000006
aF0.056900000000000006
aF0.056900000000000006
aF0.056900000000000006
aF0.056900000000000006
aF0.056900000000000006
aF0.056900000000000006
aF0.056900000000000006
aF0.056900000000000006
aF0.056900000000000006
aF0.056900000000000006
aF0.056900000000000006
aF0.056900000000000006
aF0.056900000000000006
aF0.056900000000000006
aF0.056900000000000006
aF0.056900000000000006
aF0.056900000000000006
aF0.056900000000000006
aF0.056900000000000006
aF0.056900000000000006
aF0.056900000000000006
aF0.056900000000000006
aF0.056900000000000006
aF0.056900000000000006
aF0.056900000000000006
aF0.056900000000000006
aF0.056900000000000006
aF0.056900000000000006
aF0.056900000000000006
aF0.056900000000000006
aF0.056900000000000006
aF0.056900000000000006
aF0.056900000000000006
aF0.056900000000000006
aF0.056900000000000006
aF0.056900000000000006
aF0.056900000000000006
aF0.056900000000000006
aF0.056900000000000006
aF0.056900000000000006
aF0.056900000000000006
aF0.056900000000000006
aF0.056900000000000006
aF0.056900000000000006
aF0.056900000000000006
aF0.056900000000000006
aF0.056900000000000006
aF0.056900000000000006
aF0.056900000000000006
aF0.056900000000000006
aF0.056900000000000006
aF0.056900000000000006
aF0.056900000000000006
aF0.056900000000000006
aF0.056900000000000006
aF0.056900000000000006
aF0.056900000000000006
aF0.056900000000000006
aF0.056900000000000006
aF0.056900000000000006
aF0.056900000000000006
aF0.056900000000000006
aF0.056900000000000006
aF0.056900000000000006
aF0.056900000000000006
atp2
a(I2
g1
tp3
a(I3
g1
tp4
a(I4
g1
tp5
a(I5
g1
tp6
a.