(dp0
I1
(lp1
F0.056900000000000006
aF0.056900000000000006
aF0.056900000000000006
aF0.056900000000000006
aF0.056900000000000006
aF0.056900000000000006
aF0.056900000000000006
aF0.056900000000000006
aF0.056900000000000006
aF0.056900000000000006
aF0.056900000000000006
aF0.056900000000000006
aF0.056900000000000006
aF0.056900000000000006
aF0.056900000000000006
aF0.056900000000000006
aF0.056900000000000006
aF0.056900000000000006
aF0.056900000000000006
aF0.056900000000000006
aF0.056900000000000006
aF0.056900000000000006
aF0.056900000000000006
aF0.056900000000000006
aF0.056900000000000006
aF0.056900000000000006
aF0.056900000000000006
aF0.056900000000000006
aF0.056900000000000006
aF0.056900000000000006
aF0.056900000000000006
aF0.056900000000000006
aF0.056900000000000006
aF0.056900000000000006
aF0.056900000000000006
aF0.056900000000000006
aF0.056900000000000006
aF0.056900000000000006
aF0.056900000000000006
aF0.056900000000000006
aF0.056900000000000006
aF0.056900000000000006
aF0.056900000000000006
aF0.056900000000000006
aF0.056900000000000006
aF0.056900000000000006
aF0.056900000000000006
aF0.056900000000000006
aF0.056900000000000006
aF0.056900000000000006
aF0.056900000000000006
aF0.056900000000000006
aF0.056900000000000006
aF0.056900000000000006
aF0.056900000000000006
aF0.056900000000000006
aF0.056900000000000006
aF0.056900000000000006
aF0.056900000000000006
aF0.056900000000000006
aF0.056900000000000006
aF0.056900000000000006
aF0.056900000000000006
aF0.056900000000000006
aF0.056900000000000006
aF0.056900000000000006
aF0.056900000000000006
aF0.056900000000000006
aF0.056900000000000006
aF0.056900000000000006
aF0.056900000000000006
aF0.056900000000000006
aF0.056900000000000006
aF0.056900000000000006
aF0.056900000000000006
aF0.056900000000000006
aF0.056900000000000006
aF0.056900000000000006
aF0.056900000000000006
aF0.056900000000000006
aF0.056900000000000006
aF0.056900000000000006
aF0.056900000000000006
aF0.056900000000000006
aF0.056900000000000006
aF0.056900000000000006
aF0.056900000000000006
aF0.056900000000000006
aF0.056900000000000006
aF0.056900000000000006
aF0.056900000000000006
aF0.056900000000000006
aF0.056900000000000006
aF0.056900000000000006
aF0.056900000000000006
aF0.056900000000000006
aF0.056900000000000006
aF0.056900000000000006
aF0.056900000000000006
aF0.056900000000000006
asI2
g1
sI3
g1
sI4
g1
sI5
g1
s.