(dp0
I1
(lp1
F4.495100000000001
aF0.7397
aF0.22760000000000002
aF0.11380000000000001
aF0.11380000000000001
asI2
(lp2
F4.9503
aF0.6259000000000001
aF0.11380000000000001
asI3
(lp3
F5.69
asI4
(lp4
F5.69
asI5
(lp5
F5.69
as.