(dp0
I1
(lp1
F0.056900000000000006
aF0.056900000000000006
aF0.056900000000000006
aF0.056900000000000006
aF0.056900000000000006
aF0.056900000000000006
aF0.056900000000000006
aF0.056900000000000006
aF0.056900000000000006
aF0.056900000000000006
aF0.056900000000000006
aF0.056900000000000006
aF0.056900000000000006
aF0.056900000000000006
aF0.056900000000000006
aF0.056900000000000006
aF0.056900000000000006
aF0.056900000000000006
aF0.056900000000000006
aF0.056900000000000006
aF0.056900000000000006
aF0.056900000000000006
aF0.056900000000000006
aF0.056900000000000006
aF0.056900000000000006
aF0.056900000000000006
aF0.056900000000000006
aF0.056900000000000006
aF0.056900000000000006
aF0.056900000000000006
aF0.11380000000000001
aF0.056900000000000006
aF0.056900000000000006
aF0.056900000000000006
aF0.11380000000000001
aF0.056900000000000006
aF0.056900000000000006
aF0.056900000000000006
aF0.056900000000000006
aF0.056900000000000006
aF0.056900000000000006
aF0.056900000000000006
aF0.056900000000000006
aF0.11380000000000001
aF0.056900000000000006
aF0.11380000000000001
aF0.056900000000000006
aF0.056900000000000006
aF0.11380000000000001
aF0.056900000000000006
aF0.056900000000000006
aF0.056900000000000006
aF0.056900000000000006
aF0.056900000000000006
aF0.056900000000000006
aF0.056900000000000006
aF0.056900000000000006
aF0.056900000000000006
aF0.056900000000000006
aF0.056900000000000006
aF0.11380000000000001
aF0.056900000000000006
aF0.056900000000000006
aF0.056900000000000006
aF0.056900000000000006
aF0.056900000000000006
aF0.11380000000000001
aF0.056900000000000006
aF0.056900000000000006
aF0.28450000000000003
aF0.056900000000000006
aF0.11380000000000001
aF0.11380000000000001
aF0.056900000000000006
aF0.11380000000000001
aF0.056900000000000006
aF0.11380000000000001
aF0.056900000000000006
aF0.056900000000000006
aF0.11380000000000001
aF0.11380000000000001
aF0.056900000000000006
aF0.056900000000000006
asI2
(lp2
F0.056900000000000006
aF0.056900000000000006
aF0.056900000000000006
aF0.056900000000000006
aF0.056900000000000006
aF0.056900000000000006
aF0.056900000000000006
aF0.056900000000000006
aF0.056900000000000006
aF0.056900000000000006
aF0.056900000000000006
aF0.056900000000000006
aF0.056900000000000006
aF0.056900000000000006
aF0.056900000000000006
aF0.056900000000000006
aF0.056900000000000006
aF0.056900000000000006
aF0.056900000000000006
aF0.056900000000000006
aF0.056900000000000006
aF0.056900000000000006
aF0.056900000000000006
aF0.056900000000000006
aF0.11380000000000001
aF0.056900000000000006
aF0.056900000000000006
aF0.056900000000000006
aF0.056900000000000006
aF0.056900000000000006
aF0.056900000000000006
aF0.11380000000000001
aF0.056900000000000006
aF0.056900000000000006
aF0.056900000000000006
aF0.056900000000000006
aF0.056900000000000006
aF0.056900000000000006
aF0.056900000000000006
aF0.11380000000000001
aF0.056900000000000006
aF0.056900000000000006
aF0.056900000000000006
aF0.056900000000000006
aF0.056900000000000006
aF0.056900000000000006
aF0.056900000000000006
aF0.056900000000000006
aF0.056900000000000006
aF0.056900000000000006
aF0.056900000000000006
aF0.056900000000000006
aF0.056900000000000006
aF0.11380000000000001
aF0.11380000000000001
aF0.056900000000000006
aF0.056900000000000006
aF0.056900000000000006
aF0.11380000000000001
aF0.056900000000000006
aF0.056900000000000006
aF0.056900000000000006
aF0.11380000000000001
aF0.056900000000000006
aF0.11380000000000001
aF0.056900000000000006
aF0.056900000000000006
aF0.056900000000000006
aF0.056900000000000006
aF0.056900000000000006
aF0.11380000000000001
aF0.056900000000000006
aF0.056900000000000006
aF0.11380000000000001
aF0.056900000000000006
aF0.11380000000000001
aF0.11380000000000001
aF0.056900000000000006
aF0.056900000000000006
aF0.11380000000000001
aF0.28450000000000003
aF0.056900000000000006
aF0.056900000000000006
asI3
(lp3
F0.056900000000000006
aF0.056900000000000006
aF0.056900000000000006
aF0.056900000000000006
aF0.056900000000000006
aF0.056900000000000006
aF0.056900000000000006
aF0.056900000000000006
aF0.056900000000000006
aF0.056900000000000006
aF0.056900000000000006
aF0.056900000000000006
aF0.056900000000000006
aF0.056900000000000006
aF0.056900000000000006
aF0.056900000000000006
aF0.056900000000000006
aF0.056900000000000006
aF0.056900000000000006
aF0.056900000000000006
aF0.056900000000000006
aF0.056900000000000006
aF0.056900000000000006
aF0.056900000000000006
aF0.056900000000000006
aF0.056900000000000006
aF0.056900000000000006
aF0.056900000000000006
aF0.056900000000000006
aF0.056900000000000006
aF0.11380000000000001
aF0.056900000000000006
aF0.056900000000000006
aF0.11380000000000001
aF0.056900000000000006
aF0.056900000000000006
aF0.056900000000000006
aF0.056900000000000006
aF0.056900000000000006
aF0.056900000000000006
aF0.056900000000000006
aF0.056900000000000006
aF0.056900000000000006
aF0.056900000000000006
aF0.056900000000000006
aF0.056900000000000006
aF0.11380000000000001
aF0.056900000000000006
aF0.056900000000000006
aF0.11380000000000001
aF0.056900000000000006
aF0.056900000000000006
aF0.056900000000000006
aF0.056900000000000006
aF0.11380000000000001
aF0.056900000000000006
aF0.11380000000000001
aF0.056900000000000006
aF0.11380000000000001
aF0.11380000000000001
aF0.11380000000000001
aF0.11380000000000001
aF0.11380000000000001
aF0.056900000000000006
aF0.056900000000000006
aF0.056900000000000006
aF0.056900000000000006
aF0.056900000000000006
aF0.056900000000000006
aF0.056900000000000006
aF0.11380000000000001
aF0.056900000000000006
aF0.056900000000000006
aF0.28450000000000003
aF0.11380000000000001
aF0.17070000000000002
aF0.11380000000000001
aF0.056900000000000006
aF0.056900000000000006
aF0.056900000000000006
asI4
(lp4
F0.056900000000000006
aF0.056900000000000006
aF0.056900000000000006
aF0.056900000000000006
aF0.056900000000000006
aF0.056900000000000006
aF0.056900000000000006
aF0.056900000000000006
aF0.056900000000000006
aF0.056900000000000006
aF0.056900000000000006
aF0.056900000000000006
aF0.056900000000000006
aF0.056900000000000006
aF0.056900000000000006
aF0.056900000000000006
aF0.056900000000000006
aF0.056900000000000006
aF0.056900000000000006
aF0.056900000000000006
aF0.056900000000000006
aF0.056900000000000006
aF0.056900000000000006
aF0.056900000000000006
aF0.056900000000000006
aF0.056900000000000006
aF0.056900000000000006
aF0.056900000000000006
aF0.056900000000000006
aF0.056900000000000006
aF0.056900000000000006
aF0.11380000000000001
aF0.056900000000000006
aF0.056900000000000006
aF0.056900000000000006
aF0.056900000000000006
aF0.056900000000000006
aF0.056900000000000006
aF0.056900000000000006
aF0.056900000000000006
aF0.056900000000000006
aF0.056900000000000006
aF0.056900000000000006
aF0.056900000000000006
aF0.11380000000000001
aF0.056900000000000006
aF0.056900000000000006
aF0.056900000000000006
aF0.056900000000000006
aF0.11380000000000001
aF0.056900000000000006
aF0.11380000000000001
aF0.056900000000000006
aF0.11380000000000001
aF0.056900000000000006
aF0.11380000000000001
aF0.056900000000000006
aF0.056900000000000006
aF0.11380000000000001
aF0.11380000000000001
aF0.056900000000000006
aF0.056900000000000006
aF0.056900000000000006
aF0.11380000000000001
aF0.056900000000000006
aF0.11380000000000001
aF0.056900000000000006
aF0.056900000000000006
aF0.056900000000000006
aF0.056900000000000006
aF0.056900000000000006
aF0.056900000000000006
aF0.11380000000000001
aF0.28450000000000003
aF0.056900000000000006
aF0.056900000000000006
aF0.056900000000000006
aF0.11380000000000001
aF0.056900000000000006
aF0.11380000000000001
aF0.11380000000000001
aF0.056900000000000006
asI5
(lp5
F0.056900000000000006
aF0.056900000000000006
aF0.056900000000000006
aF0.056900000000000006
aF0.056900000000000006
aF0.056900000000000006
aF0.056900000000000006
aF0.056900000000000006
aF0.056900000000000006
aF0.056900000000000006
aF0.056900000000000006
aF0.056900000000000006
aF0.056900000000000006
aF0.056900000000000006
aF0.056900000000000006
aF0.056900000000000006
aF0.056900000000000006
aF0.056900000000000006
aF0.056900000000000006
aF0.056900000000000006
aF0.056900000000000006
aF0.056900000000000006
aF0.056900000000000006
aF0.056900000000000006
aF0.056900000000000006
aF0.11380000000000001
aF0.056900000000000006
aF0.056900000000000006
aF0.056900000000000006
aF0.056900000000000006
aF0.056900000000000006
aF0.056900000000000006
aF0.056900000000000006
aF0.056900000000000006
aF0.056900000000000006
aF0.056900000000000006
aF0.056900000000000006
aF0.056900000000000006
aF0.056900000000000006
aF0.056900000000000006
aF0.056900000000000006
aF0.11380000000000001
aF0.056900000000000006
aF0.056900000000000006
aF0.11380000000000001
aF0.11380000000000001
aF0.056900000000000006
aF0.056900000000000006
aF0.056900000000000006
aF0.11380000000000001
aF0.056900000000000006
aF0.11380000000000001
aF0.11380000000000001
aF0.11380000000000001
aF0.056900000000000006
aF0.056900000000000006
aF0.056900000000000006
aF0.056900000000000006
aF0.056900000000000006
aF0.056900000000000006
aF0.17070000000000002
aF0.056900000000000006
aF0.056900000000000006
aF0.056900000000000006
aF0.11380000000000001
aF0.056900000000000006
aF0.056900000000000006
aF0.28450000000000003
aF0.11380000000000001
aF0.11380000000000001
aF0.11380000000000001
aF0.11380000000000001
aF0.056900000000000006
aF0.056900000000000006
aF0.056900000000000006
aF0.11380000000000001
aF0.056900000000000006
aF0.056900000000000006
aF0.056900000000000006
aF0.056900000000000006
as.