(dp0
I1
(lp1
F0.28450000000000003
aF0.5690000000000001
aF1.1380000000000001
aF1.4794
aF2.2191
asI2
(lp2
F0.34140000000000004
aF0.6259000000000001
aF1.5932000000000002
aF1.7070000000000003
aF1.4225
asI3
(lp3
F0.34140000000000004
aF0.6259000000000001
aF1.6501000000000001
aF1.6501000000000001
aF1.4225
asI4
(lp4
F0.34140000000000004
aF0.6259000000000001
aF1.5363000000000002
aF0.056900000000000006
aF1.7070000000000003
aF1.4225
asI5
(lp5
F0.34140000000000004
aF0.6259000000000001
aF1.5932000000000002
aF2.3329000000000004
aF0.7397
aF0.056900000000000006
as.