(dp0
I1
(lp1
F2.0484
aF3.6416000000000004
asI2
(lp2
F2.1622000000000003
aF3.5278000000000005
asI3
(lp3
F2.3329000000000004
aF3.3571000000000004
asI4
(lp4
F2.3898
aF3.0157000000000003
aF0.28450000000000003
asI5
(lp5
F2.4467000000000003
aF3.2433000000000005
as.