(dp0
I1
(lp1
F0.8535000000000001
aF3.3002000000000002
aF0.056900000000000006
aF1.1380000000000001
aF0.22760000000000002
aF0.11380000000000001
asI2
(lp2
F0.9673
aF3.8123000000000005
aF0.056900000000000006
aF0.7397
aF0.11380000000000001
asI3
(lp3
F0.9673
aF4.2675
aF0.28450000000000003
aF0.056900000000000006
aF0.11380000000000001
asI4
(lp4
F1.0242
aF4.665800000000001
asI5
(lp5
F1.0242
aF4.665800000000001
as.